target datalayout = "e-m:e-p270:32:32-p271:32:32-p272:64:64-i64:64-i128:128-f80:128-n8:16:32:64-S128"
target triple = "x86_64-pc-linux-gnu"

%struct.hashipv4 = type { i32, i8, [16 x i8], [256 x i8], [19 x i8] }

@addr_resolv_scope = internal global ptr null, align 8

; Function Attrs: null_pointer_is_valid sspstrong uwtable
define ptr @new_ipv4(i32 noundef %0) #3 {
  %2 = alloca i32, align 4
  %3 = alloca ptr, align 8
  store i32 %0, ptr %2, align 4
  call void @llvm.lifetime.start.p0(i64 8, ptr %3) #16
  %4 = load ptr, ptr @addr_resolv_scope, align 8
  %5 = call noalias ptr @wmem_alloc(ptr noundef %4, i64 noundef 296) #19
  store ptr %5, ptr %3, align 8
  %6 = load i32, ptr %2, align 4
  %7 = load ptr, ptr %3, align 8
  %8 = getelementptr inbounds nuw %struct.hashipv4, ptr %7, i32 0, i32 0
  store i32 %6, ptr %8, align 4
  %9 = load ptr, ptr %3, align 8
  %10 = getelementptr inbounds nuw %struct.hashipv4, ptr %9, i32 0, i32 1
  store i8 0, ptr %10, align 4
  %11 = load ptr, ptr %3, align 8
  %12 = getelementptr inbounds nuw %struct.hashipv4, ptr %11, i32 0, i32 3
  %13 = getelementptr [256 x i8], ptr %12, i64 0, i64 0
  store i8 0, ptr %13, align 1
  %14 = load ptr, ptr %3, align 8
  %15 = getelementptr inbounds nuw %struct.hashipv4, ptr %14, i32 0, i32 2
  %16 = getelementptr inbounds [16 x i8], ptr %15, i64 0, i64 0
  call void @ip_addr_to_str_buf(ptr noundef %2, ptr noundef %16, i32 noundef 16)
  %17 = load ptr, ptr %3, align 8
  call void @llvm.lifetime.end.p0(i64 8, ptr %3) #16
  ret ptr %17
}