; Function Attrs: null_pointer_is_valid sspstrong uwtable
define noundef ptr @new_ipv4(i32 noundef %0) local_unnamed_addr #3 {
  %2 = alloca i32, align 4
  store i32 %0, ptr %2, align 4
  %3 = load ptr, ptr @addr_resolv_scope, align 8
  %4 = tail call noalias dereferenceable_or_null(296) ptr @wmem_alloc(ptr noundef %3, i64 noundef 296) #26
  store i32 %0, ptr %4, align 4
  %5 = getelementptr inbounds nuw i8, ptr %4, i64 4
  store i8 0, ptr %5, align 4
  %6 = getelementptr inbounds nuw i8, ptr %4, i64 21
  store i8 0, ptr %6, align 1
  %7 = getelementptr inbounds nuw i8, ptr %4, i64 5
  call void @ip_addr_to_str_buf(ptr noundef nonnull %2, ptr noundef nonnull %7, i32 noundef 16)
  ret ptr %4
}